target datalayout = "e-m:e-p270:32:32-p271:32:32-p272:64:64-i64:64-i128:128-f80:128-n8:16:32:64-S128"
target triple = "x86_64-pc-linux-gnu"

%struct.io_buffer_blocking_region_argument = type { ptr, ptr, ptr, ptr }

; Function Attrs: nounwind sspstrong uwtable
define internal i64 @io_buffer_blocking_region_begin(i64 noundef %0) #0 {
  %2 = alloca i64, align 8
  %3 = alloca ptr, align 8
  store i64 %0, ptr %2, align 8, !tbaa !20
  call void @llvm.lifetime.start.p0(i64 8, ptr %3) #22
  %4 = load i64, ptr %2, align 8, !tbaa !20
  %5 = inttoptr i64 %4 to ptr
  store ptr %5, ptr %3, align 8, !tbaa !101
  %6 = load ptr, ptr %3, align 8, !tbaa !101
  %7 = getelementptr inbounds nuw %struct.io_buffer_blocking_region_argument, ptr %6, i32 0, i32 0
  %8 = load ptr, ptr %7, align 8, !tbaa !57
  %9 = load ptr, ptr %3, align 8, !tbaa !101
  %10 = getelementptr inbounds nuw %struct.io_buffer_blocking_region_argument, ptr %9, i32 0, i32 2
  %11 = load ptr, ptr %10, align 8, !tbaa !60
  %12 = load ptr, ptr %3, align 8, !tbaa !101
  %13 = getelementptr inbounds nuw %struct.io_buffer_blocking_region_argument, ptr %12, i32 0, i32 3
  %14 = load ptr, ptr %13, align 8, !tbaa !61
  %15 = call i64 @rb_io_blocking_region(ptr noundef %8, ptr noundef %11, ptr noundef %14)
  call void @llvm.lifetime.end.p0(i64 8, ptr %3) #22
  ret i64 %15
}