; Function Attrs: nounwind sspstrong uwtable
define internal i64 @io_buffer_blocking_region_begin(i64 noundef %0) #0 {
  %2 = inttoptr i64 %0 to ptr
  %3 = load ptr, ptr %2, align 8, !tbaa !54
  %4 = getelementptr inbounds nuw i8, ptr %2, i64 16
  %5 = load ptr, ptr %4, align 8, !tbaa !58
  %6 = getelementptr inbounds nuw i8, ptr %2, i64 24
  %7 = load ptr, ptr %6, align 8, !tbaa !59
  %8 = tail call i64 @rb_io_blocking_region(ptr noundef %3, ptr noundef %5, ptr noundef %7) #25
  ret i64 %8
}